target datalayout = "e-m:e-p270:32:32-p271:32:32-p272:64:64-i64:64-i128:128-f80:128-n8:16:32:64-S128"
target triple = "x86_64-pc-linux-gnu"

%struct.anon = type { i64, ptr }

@.str.11 = private unnamed_addr constant [36 x i8] c"../openssl/test/sparse_array_test.c\00", align 1
@.str.12 = private unnamed_addr constant [24 x i8] c"sa = ossl_sa_char_new()\00", align 1
@.str.13 = private unnamed_addr constant [24 x i8] c"ossl_sa_char_get(sa, 3)\00", align 1
@.str.14 = private unnamed_addr constant [24 x i8] c"ossl_sa_char_get(sa, 0)\00", align 1
@.str.15 = private unnamed_addr constant [31 x i8] c"ossl_sa_char_get(sa, UINT_MAX)\00", align 1
@.str.16 = private unnamed_addr constant [45 x i8] c"ossl_sa_char_set(sa, cases[i].n, cases[i].v)\00", align 1
@.str.17 = private unnamed_addr constant [14 x i8] c"iteration %zu\00", align 1
@.str.18 = private unnamed_addr constant [33 x i8] c"ossl_sa_char_get(sa, cases[j].n)\00", align 1
@.str.19 = private unnamed_addr constant [11 x i8] c"cases[j].v\00", align 1
@.str.20 = private unnamed_addr constant [20 x i8] c"iteration %zu / %zu\00", align 1

; Function Attrs: inlinehint nounwind uwtable
define internal void @ossl_sa_char_free(ptr noundef %0) #3 {
  %2 = alloca ptr, align 8
  store ptr %0, ptr %2, align 8, !tbaa !8
  %3 = load ptr, ptr %2, align 8, !tbaa !8
  call void @ossl_sa_free(ptr noundef %3)
  ret void
}

; Function Attrs: inlinehint nounwind uwtable
define internal i32 @ossl_sa_char_set(ptr noundef %0, i64 noundef %1, ptr noundef %2) #3 {
  %4 = alloca ptr, align 8
  %5 = alloca i64, align 8
  %6 = alloca ptr, align 8
  store ptr %0, ptr %4, align 8, !tbaa !8
  store i64 %1, ptr %5, align 8, !tbaa !11
  store ptr %2, ptr %6, align 8, !tbaa !36
  %7 = load ptr, ptr %4, align 8, !tbaa !8
  %8 = load i64, ptr %5, align 8, !tbaa !11
  %9 = load ptr, ptr %6, align 8, !tbaa !36
  %10 = call i32 @ossl_sa_set(ptr noundef %7, i64 noundef %8, ptr noundef %9)
  ret i32 %10
}

; Function Attrs: inlinehint nounwind uwtable
define internal ptr @ossl_sa_char_get(ptr noundef %0, i64 noundef %1) #3 {
  %3 = alloca ptr, align 8
  %4 = alloca i64, align 8
  store ptr %0, ptr %3, align 8, !tbaa !8
  store i64 %1, ptr %4, align 8, !tbaa !11
  %5 = load ptr, ptr %3, align 8, !tbaa !8
  %6 = load i64, ptr %4, align 8, !tbaa !11
  %7 = call ptr @ossl_sa_get(ptr noundef %5, i64 noundef %6)
  ret ptr %7
}

; Function Attrs: inlinehint nounwind uwtable
define internal ptr @ossl_sa_char_new() #3 {
  %1 = call ptr @ossl_sa_new()
  ret ptr %1
}

; Function Attrs: nounwind uwtable
define internal i32 @test_sparse_array() #0 {
  %1 = alloca ptr, align 8
  %2 = alloca i64, align 8
  %3 = alloca i64, align 8
  %4 = alloca i32, align 4
  call void @llvm.lifetime.start.p0(i64 8, ptr %1) #5
  call void @llvm.lifetime.start.p0(i64 8, ptr %2) #5
  call void @llvm.lifetime.start.p0(i64 8, ptr %3) #5
  call void @llvm.lifetime.start.p0(i64 4, ptr %4) #5
  store i32 0, ptr %4, align 4, !tbaa !4
  %5 = call ptr @ossl_sa_char_new()
  store ptr %5, ptr %1, align 8, !tbaa !8
  %6 = call i32 @test_ptr(ptr noundef @.str.11, i32 noundef 43, ptr noundef @.str.12, ptr noundef %5)
  %7 = icmp ne i32 %6, 0
  br i1 %7, label %8, label %23

8:                                                ; preds = %0
  %9 = load ptr, ptr %1, align 8, !tbaa !8
  %10 = call ptr @ossl_sa_char_get(ptr noundef %9, i64 noundef 3)
  %11 = call i32 @test_ptr_null(ptr noundef @.str.11, i32 noundef 44, ptr noundef @.str.13, ptr noundef %10)
  %12 = icmp ne i32 %11, 0
  br i1 %12, label %13, label %23

13:                                               ; preds = %8
  %14 = load ptr, ptr %1, align 8, !tbaa !8
  %15 = call ptr @ossl_sa_char_get(ptr noundef %14, i64 noundef 0)
  %16 = call i32 @test_ptr_null(ptr noundef @.str.11, i32 noundef 45, ptr noundef @.str.14, ptr noundef %15)
  %17 = icmp ne i32 %16, 0
  br i1 %17, label %18, label %23

18:                                               ; preds = %13
  %19 = load ptr, ptr %1, align 8, !tbaa !8
  %20 = call ptr @ossl_sa_char_get(ptr noundef %19, i64 noundef 4294967295)
  %21 = call i32 @test_ptr_null(ptr noundef @.str.11, i32 noundef 46, ptr noundef @.str.15, ptr noundef %20)
  %22 = icmp ne i32 %21, 0
  br i1 %22, label %24, label %23

23:                                               ; preds = %18, %13, %8, %0
  br label %78

24:                                               ; preds = %18
  store i64 0, ptr %2, align 8, !tbaa !11
  br label %25

25:                                               ; preds = %74, %24
  %26 = load i64, ptr %2, align 8, !tbaa !11
  %27 = icmp ult i64 %26, 8
  br i1 %27, label %28, label %77

28:                                               ; preds = %25
  %29 = load ptr, ptr %1, align 8, !tbaa !8
  %30 = load i64, ptr %2, align 8, !tbaa !11
  %31 = getelementptr inbounds nuw [8 x %struct.anon], ptr @test_sparse_array.cases, i64 0, i64 %30
  %32 = getelementptr inbounds nuw %struct.anon, ptr %31, i32 0, i32 0
  %33 = load i64, ptr %32, align 16, !tbaa !13
  %34 = load i64, ptr %2, align 8, !tbaa !11
  %35 = getelementptr inbounds nuw [8 x %struct.anon], ptr @test_sparse_array.cases, i64 0, i64 %34
  %36 = getelementptr inbounds nuw %struct.anon, ptr %35, i32 0, i32 1
  %37 = load ptr, ptr %36, align 8, !tbaa !16
  %38 = call i32 @ossl_sa_char_set(ptr noundef %29, i64 noundef %33, ptr noundef %37)
  %39 = icmp ne i32 %38, 0
  %40 = zext i1 %39 to i32
  %41 = call i32 @test_true(ptr noundef @.str.11, i32 noundef 50, ptr noundef @.str.16, i32 noundef %40)
  %42 = icmp ne i32 %41, 0
  br i1 %42, label %46, label %43

43:                                               ; preds = %28
  %44 = load i64, ptr %2, align 8, !tbaa !11
  %45 = add i64 %44, 1
  call void (ptr, ...) @test_note(ptr noundef @.str.17, i64 noundef %45)
  br label %78

46:                                               ; preds = %28
  store i64 0, ptr %3, align 8, !tbaa !11
  br label %47

47:                                               ; preds = %70, %46
  %48 = load i64, ptr %3, align 8, !tbaa !11
  %49 = load i64, ptr %2, align 8, !tbaa !11
  %50 = icmp ule i64 %48, %49
  br i1 %50, label %51, label %73

51:                                               ; preds = %47
  %52 = load ptr, ptr %1, align 8, !tbaa !8
  %53 = load i64, ptr %3, align 8, !tbaa !11
  %54 = getelementptr inbounds nuw [8 x %struct.anon], ptr @test_sparse_array.cases, i64 0, i64 %53
  %55 = getelementptr inbounds nuw %struct.anon, ptr %54, i32 0, i32 0
  %56 = load i64, ptr %55, align 16, !tbaa !13
  %57 = call ptr @ossl_sa_char_get(ptr noundef %52, i64 noundef %56)
  %58 = load i64, ptr %3, align 8, !tbaa !11
  %59 = getelementptr inbounds nuw [8 x %struct.anon], ptr @test_sparse_array.cases, i64 0, i64 %58
  %60 = getelementptr inbounds nuw %struct.anon, ptr %59, i32 0, i32 1
  %61 = load ptr, ptr %60, align 8, !tbaa !16
  %62 = call i32 @test_str_eq(ptr noundef @.str.11, i32 noundef 55, ptr noundef @.str.18, ptr noundef @.str.19, ptr noundef %57, ptr noundef %61)
  %63 = icmp ne i32 %62, 0
  br i1 %63, label %69, label %64

64:                                               ; preds = %51
  %65 = load i64, ptr %2, align 8, !tbaa !11
  %66 = add i64 %65, 1
  %67 = load i64, ptr %3, align 8, !tbaa !11
  %68 = add i64 %67, 1
  call void (ptr, ...) @test_note(ptr noundef @.str.20, i64 noundef %66, i64 noundef %68)
  br label %78

69:                                               ; preds = %51
  br label %70

70:                                               ; preds = %69
  %71 = load i64, ptr %3, align 8, !tbaa !11
  %72 = add i64 %71, 1
  store i64 %72, ptr %3, align 8, !tbaa !11
  br label %47, !llvm.loop !17

73:                                               ; preds = %47
  br label %74

74:                                               ; preds = %73
  %75 = load i64, ptr %2, align 8, !tbaa !11
  %76 = add i64 %75, 1
  store i64 %76, ptr %2, align 8, !tbaa !11
  br label %25, !llvm.loop !19

77:                                               ; preds = %25
  store i32 1, ptr %4, align 4, !tbaa !4
  br label %78

78:                                               ; preds = %77, %64, %43, %23
  %79 = load ptr, ptr %1, align 8, !tbaa !8
  call void @ossl_sa_char_free(ptr noundef %79)
  %80 = load i32, ptr %4, align 4, !tbaa !4
  call void @llvm.lifetime.end.p0(i64 4, ptr %4) #5
  call void @llvm.lifetime.end.p0(i64 8, ptr %3) #5
  call void @llvm.lifetime.end.p0(i64 8, ptr %2) #5
  call void @llvm.lifetime.end.p0(i64 8, ptr %1) #5
  ret i32 %80
}