; Function Attrs: nounwind uwtable
define internal range(i32 0, 2) i32 @test_sparse_array() #0 {
  %1 = tail call ptr @ossl_sa_new() #4
  %2 = tail call i32 @test_ptr(ptr noundef nonnull @.str.11, i32 noundef 43, ptr noundef nonnull @.str.12, ptr noundef %1) #4
  %.not = icmp eq i32 %2, 0
  br i1 %.not, label %.loopexit, label %3

3:                                                ; preds = %0
  %4 = tail call ptr @ossl_sa_get(ptr noundef %1, i64 noundef 3) #4
  %5 = tail call i32 @test_ptr_null(ptr noundef nonnull @.str.11, i32 noundef 44, ptr noundef nonnull @.str.13, ptr noundef %4) #4
  %.not20 = icmp eq i32 %5, 0
  br i1 %.not20, label %.loopexit, label %6

6:                                                ; preds = %3
  %7 = tail call ptr @ossl_sa_get(ptr noundef %1, i64 noundef 0) #4
  %8 = tail call i32 @test_ptr_null(ptr noundef nonnull @.str.11, i32 noundef 45, ptr noundef nonnull @.str.14, ptr noundef %7) #4
  %.not21 = icmp eq i32 %8, 0
  br i1 %.not21, label %.loopexit, label %9

9:                                                ; preds = %6
  %10 = tail call ptr @ossl_sa_get(ptr noundef %1, i64 noundef 4294967295) #4
  %11 = tail call i32 @test_ptr_null(ptr noundef nonnull @.str.11, i32 noundef 46, ptr noundef nonnull @.str.15, ptr noundef %10) #4
  %.not22 = icmp eq i32 %11, 0
  br i1 %.not22, label %.loopexit, label %.preheader26

.preheader26:                                     ; preds = %9, %33
  %indvars.iv = phi i64 [ %indvars.iv.next, %33 ], [ 1, %9 ]
  %.01931 = phi i64 [ %34, %33 ], [ 0, %9 ]
  %12 = getelementptr inbounds nuw [8 x %struct.anon], ptr @test_sparse_array.cases, i64 0, i64 %.01931
  %13 = load i64, ptr %12, align 16, !tbaa !4
  %14 = getelementptr inbounds nuw i8, ptr %12, i64 8
  %15 = load ptr, ptr %14, align 8, !tbaa !11
  %16 = tail call i32 @ossl_sa_set(ptr noundef %1, i64 noundef %13, ptr noundef %15) #4
  %17 = icmp ne i32 %16, 0
  %18 = zext i1 %17 to i32
  %19 = tail call i32 @test_true(ptr noundef nonnull @.str.11, i32 noundef 50, ptr noundef nonnull @.str.16, i32 noundef %18) #4
  %.not23 = icmp eq i32 %19, 0
  br i1 %.not23, label %20, label %.preheader

20:                                               ; preds = %.preheader26
  %21 = add nuw nsw i64 %.01931, 1
  tail call void (ptr, ...) @test_note(ptr noundef nonnull @.str.17, i64 noundef %21) #4
  br label %.loopexit

.preheader:                                       ; preds = %.preheader26, %31
  %.01830 = phi i64 [ %32, %31 ], [ 0, %.preheader26 ]
  %22 = getelementptr inbounds nuw [8 x %struct.anon], ptr @test_sparse_array.cases, i64 0, i64 %.01830
  %23 = load i64, ptr %22, align 16, !tbaa !4
  %24 = tail call ptr @ossl_sa_get(ptr noundef %1, i64 noundef %23) #4
  %25 = getelementptr inbounds nuw i8, ptr %22, i64 8
  %26 = load ptr, ptr %25, align 8, !tbaa !11
  %27 = tail call i32 @test_str_eq(ptr noundef nonnull @.str.11, i32 noundef 55, ptr noundef nonnull @.str.18, ptr noundef nonnull @.str.19, ptr noundef %24, ptr noundef %26) #4
  %.not25 = icmp eq i32 %27, 0
  br i1 %.not25, label %28, label %31

28:                                               ; preds = %.preheader
  %29 = add nuw nsw i64 %.01931, 1
  %30 = add nuw nsw i64 %.01830, 1
  tail call void (ptr, ...) @test_note(ptr noundef nonnull @.str.20, i64 noundef %29, i64 noundef %30) #4
  br label %.loopexit

31:                                               ; preds = %.preheader
  %32 = add nuw nsw i64 %.01830, 1
  %exitcond.not = icmp eq i64 %32, %indvars.iv
  br i1 %exitcond.not, label %33, label %.preheader, !llvm.loop !12

33:                                               ; preds = %31
  %34 = add nuw nsw i64 %.01931, 1
  %indvars.iv.next = add nuw nsw i64 %indvars.iv, 1
  %exitcond35.not = icmp eq i64 %34, 8
  br i1 %exitcond35.not, label %.loopexit, label %.preheader26, !llvm.loop !14

.loopexit:                                        ; preds = %33, %0, %3, %6, %9, %28, %20
  %.0 = phi i32 [ 0, %28 ], [ 0, %20 ], [ 0, %9 ], [ 0, %6 ], [ 0, %3 ], [ 0, %0 ], [ 1, %33 ]
  tail call void @ossl_sa_free(ptr noundef %1) #4
  ret i32 %.0
}